target datalayout = "e-m:e-p270:32:32-p271:32:32-p272:64:64-i64:64-i128:128-f80:128-n8:16:32:64-S128"
target triple = "x86_64-pc-linux-gnu"

%struct.UConverterSharedData = type { i32, i32, ptr, ptr, i8, i8, ptr, i32, %struct.UConverterMBCSTable }
%struct.UConverterMBCSTable = type { i8, i8, i8, i32, ptr, ptr, ptr, ptr, ptr, ptr, [64 x i16], ptr, ptr, i32, i8, i8, i8, i16, i32, ptr, ptr, ptr, ptr }
%struct.UConverterImpl = type { i32, ptr, ptr, ptr, ptr, ptr, ptr, ptr, ptr, ptr, ptr, ptr, ptr, ptr, ptr, ptr, ptr, ptr }

; Function Attrs: mustprogress uwtable
define internal noundef signext i8 @_ZL30ucnv_deleteSharedConverterDataP20UConverterSharedData(ptr noundef %0) #0 {
  %2 = alloca i8, align 1
  %3 = alloca ptr, align 8
  %4 = alloca ptr, align 8
  store ptr %0, ptr %3, align 8, !tbaa !18
  %5 = load ptr, ptr %3, align 8, !tbaa !18
  %6 = getelementptr inbounds nuw %struct.UConverterSharedData, ptr %5, i32 0, i32 1
  %7 = load i32, ptr %6, align 4, !tbaa !21
  %8 = icmp ugt i32 %7, 0
  br i1 %8, label %9, label %10

9:                                                ; preds = %1
  store i8 0, ptr %2, align 1
  br label %36

10:                                               ; preds = %1
  %11 = load ptr, ptr %3, align 8, !tbaa !18
  %12 = getelementptr inbounds nuw %struct.UConverterSharedData, ptr %11, i32 0, i32 6
  %13 = load ptr, ptr %12, align 8, !tbaa !34
  %14 = getelementptr inbounds nuw %struct.UConverterImpl, ptr %13, i32 0, i32 2
  %15 = load ptr, ptr %14, align 8, !tbaa !35
  %16 = icmp ne ptr %15, null
  br i1 %16, label %17, label %24

17:                                               ; preds = %10
  %18 = load ptr, ptr %3, align 8, !tbaa !18
  %19 = getelementptr inbounds nuw %struct.UConverterSharedData, ptr %18, i32 0, i32 6
  %20 = load ptr, ptr %19, align 8, !tbaa !34
  %21 = getelementptr inbounds nuw %struct.UConverterImpl, ptr %20, i32 0, i32 2
  %22 = load ptr, ptr %21, align 8, !tbaa !35
  %23 = load ptr, ptr %3, align 8, !tbaa !18
  call void %22(ptr noundef %23)
  br label %24

24:                                               ; preds = %17, %10
  %25 = load ptr, ptr %3, align 8, !tbaa !18
  %26 = getelementptr inbounds nuw %struct.UConverterSharedData, ptr %25, i32 0, i32 2
  %27 = load ptr, ptr %26, align 8, !tbaa !38
  %28 = icmp ne ptr %27, null
  br i1 %28, label %29, label %34

29:                                               ; preds = %24
  call void @llvm.lifetime.start.p0(i64 8, ptr %4) #12
  %30 = load ptr, ptr %3, align 8, !tbaa !18
  %31 = getelementptr inbounds nuw %struct.UConverterSharedData, ptr %30, i32 0, i32 2
  %32 = load ptr, ptr %31, align 8, !tbaa !38
  store ptr %32, ptr %4, align 8, !tbaa !29
  %33 = load ptr, ptr %4, align 8, !tbaa !29
  call void @udata_close_77(ptr noundef %33)
  call void @llvm.lifetime.end.p0(i64 8, ptr %4) #12
  br label %34

34:                                               ; preds = %29, %24
  %35 = load ptr, ptr %3, align 8, !tbaa !18
  call void @uprv_free_77(ptr noundef %35)
  store i8 1, ptr %2, align 1
  br label %36

36:                                               ; preds = %34, %9
  %37 = load i8, ptr %2, align 1
  ret i8 %37
}

; Function Attrs: mustprogress uwtable
define void @ucnv_unload_77(ptr noundef %0) #0 {
  %2 = alloca ptr, align 8
  store ptr %0, ptr %2, align 8, !tbaa !18
  %3 = load ptr, ptr %2, align 8, !tbaa !18
  %4 = icmp ne ptr %3, null
  br i1 %4, label %5, label %30

5:                                                ; preds = %1
  %6 = load ptr, ptr %2, align 8, !tbaa !18
  %7 = getelementptr inbounds nuw %struct.UConverterSharedData, ptr %6, i32 0, i32 1
  %8 = load i32, ptr %7, align 4, !tbaa !21
  %9 = icmp ugt i32 %8, 0
  br i1 %9, label %10, label %15

10:                                               ; preds = %5
  %11 = load ptr, ptr %2, align 8, !tbaa !18
  %12 = getelementptr inbounds nuw %struct.UConverterSharedData, ptr %11, i32 0, i32 1
  %13 = load i32, ptr %12, align 4, !tbaa !21
  %14 = add i32 %13, -1
  store i32 %14, ptr %12, align 4, !tbaa !21
  br label %15

15:                                               ; preds = %10, %5
  %16 = load ptr, ptr %2, align 8, !tbaa !18
  %17 = getelementptr inbounds nuw %struct.UConverterSharedData, ptr %16, i32 0, i32 1
  %18 = load i32, ptr %17, align 4, !tbaa !21
  %19 = icmp ule i32 %18, 0
  br i1 %19, label %20, label %29

20:                                               ; preds = %15
  %21 = load ptr, ptr %2, align 8, !tbaa !18
  %22 = getelementptr inbounds nuw %struct.UConverterSharedData, ptr %21, i32 0, i32 4
  %23 = load i8, ptr %22, align 8, !tbaa !32
  %24 = sext i8 %23 to i32
  %25 = icmp eq i32 %24, 0
  br i1 %25, label %26, label %29

26:                                               ; preds = %20
  %27 = load ptr, ptr %2, align 8, !tbaa !18
  %28 = call noundef signext i8 @_ZL30ucnv_deleteSharedConverterDataP20UConverterSharedData(ptr noundef %27)
  br label %29

29:                                               ; preds = %26, %20, %15
  br label %30

30:                                               ; preds = %29, %1
  ret void
}