; Function Attrs: mustprogress uwtable
define void @ucnv_unload_77(ptr noundef %0) local_unnamed_addr #0 {
  %.not = icmp eq ptr %0, null
  br i1 %.not, label %21, label %2

2:                                                ; preds = %1
  %3 = getelementptr inbounds nuw i8, ptr %0, i64 4
  %4 = load i32, ptr %3, align 4, !tbaa !22
  %.not7 = icmp eq i32 %4, 0
  br i1 %.not7, label %.thread, label %5

5:                                                ; preds = %2
  %6 = add i32 %4, -1
  store i32 %6, ptr %3, align 4, !tbaa !22
  %7 = icmp eq i32 %6, 0
  br i1 %7, label %.thread, label %21

.thread:                                          ; preds = %2, %5
  %8 = getelementptr inbounds nuw i8, ptr %0, i64 24
  %9 = load i8, ptr %8, align 8, !tbaa !37
  %10 = icmp eq i8 %9, 0
  br i1 %10, label %11, label %21

11:                                               ; preds = %.thread
  %12 = getelementptr inbounds nuw i8, ptr %0, i64 32
  %13 = load ptr, ptr %12, align 8, !tbaa !39
  %14 = getelementptr inbounds nuw i8, ptr %13, i64 16
  %15 = load ptr, ptr %14, align 8, !tbaa !43
  %.not10.i = icmp eq ptr %15, null
  br i1 %.not10.i, label %17, label %16

16:                                               ; preds = %11
  tail call void %15(ptr noundef nonnull %0)
  br label %17

17:                                               ; preds = %16, %11
  %18 = getelementptr inbounds nuw i8, ptr %0, i64 8
  %19 = load ptr, ptr %18, align 8, !tbaa !38
  %.not11.i = icmp eq ptr %19, null
  br i1 %.not11.i, label %_ZL30ucnv_deleteSharedConverterDataP20UConverterSharedData.exit, label %20

20:                                               ; preds = %17
  tail call void @udata_close_77(ptr noundef nonnull %19)
  br label %_ZL30ucnv_deleteSharedConverterDataP20UConverterSharedData.exit

_ZL30ucnv_deleteSharedConverterDataP20UConverterSharedData.exit: ; preds = %17, %20
  tail call void @uprv_free_77(ptr noundef nonnull %0)
  br label %21

21:                                               ; preds = %5, %.thread, %_ZL30ucnv_deleteSharedConverterDataP20UConverterSharedData.exit, %1
  ret void
}